; Function Attrs: mustprogress nounwind uwtable
define dso_local noundef zeroext i1 @_ZN4llvm4yaml6Output21canElideEmptySequenceEv(ptr noundef nonnull align 8 dereferenceable(128) %0) unnamed_addr #6 align 2 {
  %2 = getelementptr inbounds nuw i8, ptr %0, i64 32
  %3 = tail call noundef i64 @_ZNK4llvm15SmallVectorBaseIjE4sizeEv(ptr noundef nonnull align 8 dereferenceable(16) %2) #32
  %4 = icmp ult i64 %3, 2
  br i1 %4, label %18, label %5

5:                                                ; preds = %1
  %6 = load ptr, ptr %2, align 8
  %7 = tail call noundef i64 @_ZNK4llvm15SmallVectorBaseIjE4sizeEv(ptr noundef nonnull align 8 dereferenceable(16) %2) #32
  %8 = getelementptr inbounds i32, ptr %6, i64 %7
  %9 = getelementptr inbounds i8, ptr %8, i64 -4
  %10 = load i32, ptr %9, align 4
  %.not = icmp eq i32 %10, 4
  br i1 %.not, label %11, label %18

11:                                               ; preds = %5
  %12 = tail call noundef i64 @_ZNK4llvm15SmallVectorBaseIjE4sizeEv(ptr noundef nonnull align 8 dereferenceable(16) %2) #32
  %13 = load ptr, ptr %2, align 8
  %14 = getelementptr i32, ptr %13, i64 %12
  %15 = getelementptr i8, ptr %14, i64 -8
  %16 = load i32, ptr %15, align 4
  %17 = icmp ugt i32 %16, 1
  br label %18

18:                                               ; preds = %5, %1, %11
  %.0 = phi i1 [ %17, %11 ], [ true, %1 ], [ true, %5 ]
  ret i1 %.0
}